target datalayout = "e-m:e-p270:32:32-p271:32:32-p272:64:64-i64:64-i128:128-f80:128-n8:16:32:64-S128"
target triple = "x86_64-pc-linux-gnu"

%struct._generic_N_Vector = type { ptr, ptr, ptr }
%struct._N_VectorContent_Serial = type { i64, i32, ptr }
%struct._generic_SUNMatrix = type { ptr, ptr, ptr }
%struct._SUNMatrixContent_Dense = type { i64, i64, ptr, i64, ptr }

; Function Attrs: nounwind uwtable
define internal double @s(double noundef %0, ptr noundef %1) #0 {
  %3 = alloca double, align 8
  %4 = alloca ptr, align 8
  %5 = alloca ptr, align 8
  store double %0, ptr %3, align 8, !tbaa !11
  store ptr %1, ptr %4, align 8, !tbaa !17
  call void @llvm.lifetime.start.p0(i64 8, ptr %5) #6
  %6 = load ptr, ptr %4, align 8, !tbaa !17
  store ptr %6, ptr %5, align 8, !tbaa !36
  %7 = load ptr, ptr %5, align 8, !tbaa !36
  %8 = getelementptr inbounds double, ptr %7, i64 1
  %9 = load double, ptr %8, align 8, !tbaa !11
  %10 = load double, ptr %3, align 8, !tbaa !11
  %11 = fmul double %9, %10
  %12 = call double @cos(double noundef %11) #6, !tbaa !4
  call void @llvm.lifetime.end.p0(i64 8, ptr %5) #6
  ret double %12
}

; Function Attrs: nounwind uwtable
define internal double @rdot(double noundef %0, ptr noundef %1) #0 {
  %3 = alloca double, align 8
  %4 = alloca ptr, align 8
  store double %0, ptr %3, align 8, !tbaa !11
  store ptr %1, ptr %4, align 8, !tbaa !17
  %5 = load double, ptr %3, align 8, !tbaa !11
  %6 = call double @sin(double noundef %5) #6, !tbaa !4
  %7 = fmul double -5.000000e-01, %6
  ret double %7
}

; Function Attrs: nounwind uwtable
define internal double @r(double noundef %0, ptr noundef %1) #0 {
  %3 = alloca double, align 8
  %4 = alloca ptr, align 8
  store double %0, ptr %3, align 8, !tbaa !11
  store ptr %1, ptr %4, align 8, !tbaa !17
  %5 = load double, ptr %3, align 8, !tbaa !11
  %6 = call double @cos(double noundef %5) #6, !tbaa !4
  %7 = fmul double 5.000000e-01, %6
  ret double %7
}

; Function Attrs: nounwind uwtable
define internal i32 @Js(double noundef %0, ptr noundef %1, ptr noundef %2, ptr noundef %3, ptr noundef %4, ptr noundef %5, ptr noundef %6, ptr noundef %7) #0 {
  %9 = alloca double, align 8
  %10 = alloca ptr, align 8
  %11 = alloca ptr, align 8
  %12 = alloca ptr, align 8
  %13 = alloca ptr, align 8
  %14 = alloca ptr, align 8
  %15 = alloca ptr, align 8
  %16 = alloca ptr, align 8
  %17 = alloca ptr, align 8
  %18 = alloca double, align 8
  %19 = alloca double, align 8
  %20 = alloca double, align 8
  %21 = alloca double, align 8
  store double %0, ptr %9, align 8, !tbaa !11
  store ptr %1, ptr %10, align 8, !tbaa !15
  store ptr %2, ptr %11, align 8, !tbaa !15
  store ptr %3, ptr %12, align 8, !tbaa !24
  store ptr %4, ptr %13, align 8, !tbaa !17
  store ptr %5, ptr %14, align 8, !tbaa !15
  store ptr %6, ptr %15, align 8, !tbaa !15
  store ptr %7, ptr %16, align 8, !tbaa !15
  call void @llvm.lifetime.start.p0(i64 8, ptr %17) #6
  %22 = load ptr, ptr %13, align 8, !tbaa !17
  store ptr %22, ptr %17, align 8, !tbaa !36
  call void @llvm.lifetime.start.p0(i64 8, ptr %18) #6
  %23 = load ptr, ptr %17, align 8, !tbaa !36
  %24 = getelementptr inbounds double, ptr %23, i64 0
  %25 = load double, ptr %24, align 8, !tbaa !11
  store double %25, ptr %18, align 8, !tbaa !11
  call void @llvm.lifetime.start.p0(i64 8, ptr %19) #6
  %26 = load ptr, ptr %17, align 8, !tbaa !36
  %27 = getelementptr inbounds double, ptr %26, i64 2
  %28 = load double, ptr %27, align 8, !tbaa !11
  store double %28, ptr %19, align 8, !tbaa !11
  call void @llvm.lifetime.start.p0(i64 8, ptr %20) #6
  %29 = load ptr, ptr %10, align 8, !tbaa !15
  %30 = getelementptr inbounds nuw %struct._generic_N_Vector, ptr %29, i32 0, i32 0
  %31 = load ptr, ptr %30, align 8, !tbaa !44
  %32 = getelementptr inbounds nuw %struct._N_VectorContent_Serial, ptr %31, i32 0, i32 2
  %33 = load ptr, ptr %32, align 8, !tbaa !47
  %34 = getelementptr inbounds double, ptr %33, i64 0
  %35 = load double, ptr %34, align 8, !tbaa !11
  store double %35, ptr %20, align 8, !tbaa !11
  call void @llvm.lifetime.start.p0(i64 8, ptr %21) #6
  %36 = load ptr, ptr %10, align 8, !tbaa !15
  %37 = getelementptr inbounds nuw %struct._generic_N_Vector, ptr %36, i32 0, i32 0
  %38 = load ptr, ptr %37, align 8, !tbaa !44
  %39 = getelementptr inbounds nuw %struct._N_VectorContent_Serial, ptr %38, i32 0, i32 2
  %40 = load ptr, ptr %39, align 8, !tbaa !47
  %41 = getelementptr inbounds double, ptr %40, i64 1
  %42 = load double, ptr %41, align 8, !tbaa !11
  store double %42, ptr %21, align 8, !tbaa !11
  %43 = load double, ptr %18, align 8, !tbaa !11
  %44 = fdiv double %43, 2.000000e+00
  %45 = load double, ptr %18, align 8, !tbaa !11
  %46 = load double, ptr %9, align 8, !tbaa !11
  %47 = load ptr, ptr %17, align 8, !tbaa !36
  %48 = call double @r(double noundef %46, ptr noundef %47)
  %49 = fadd double 1.000000e+00, %48
  %50 = load double, ptr %9, align 8, !tbaa !11
  %51 = load ptr, ptr %17, align 8, !tbaa !36
  %52 = call double @rdot(double noundef %50, ptr noundef %51)
  %53 = fneg double %52
  %54 = call double @llvm.fmuladd.f64(double %45, double %49, double %53)
  %55 = load double, ptr %20, align 8, !tbaa !11
  %56 = fmul double 2.000000e+00, %55
  %57 = load double, ptr %20, align 8, !tbaa !11
  %58 = fmul double %56, %57
  %59 = fdiv double %54, %58
  %60 = fadd double %44, %59
  %61 = load ptr, ptr %12, align 8, !tbaa !24
  %62 = getelementptr inbounds nuw %struct._generic_SUNMatrix, ptr %61, i32 0, i32 0
  %63 = load ptr, ptr %62, align 8, !tbaa !51
  %64 = getelementptr inbounds nuw %struct._SUNMatrixContent_Dense, ptr %63, i32 0, i32 4
  %65 = load ptr, ptr %64, align 8, !tbaa !54
  %66 = getelementptr inbounds ptr, ptr %65, i64 0
  %67 = load ptr, ptr %66, align 8, !tbaa !36
  %68 = getelementptr inbounds double, ptr %67, i64 0
  store double %60, ptr %68, align 8, !tbaa !11
  %69 = load double, ptr %19, align 8, !tbaa !11
  %70 = fdiv double %69, 2.000000e+00
  %71 = load double, ptr %19, align 8, !tbaa !11
  %72 = load double, ptr %9, align 8, !tbaa !11
  %73 = load ptr, ptr %17, align 8, !tbaa !36
  %74 = call double @s(double noundef %72, ptr noundef %73)
  %75 = fadd double 2.000000e+00, %74
  %76 = fmul double %71, %75
  %77 = load double, ptr %21, align 8, !tbaa !11
  %78 = fmul double 2.000000e+00, %77
  %79 = load double, ptr %21, align 8, !tbaa !11
  %80 = fmul double %78, %79
  %81 = fdiv double %76, %80
  %82 = fadd double %70, %81
  %83 = load ptr, ptr %12, align 8, !tbaa !24
  %84 = getelementptr inbounds nuw %struct._generic_SUNMatrix, ptr %83, i32 0, i32 0
  %85 = load ptr, ptr %84, align 8, !tbaa !51
  %86 = getelementptr inbounds nuw %struct._SUNMatrixContent_Dense, ptr %85, i32 0, i32 4
  %87 = load ptr, ptr %86, align 8, !tbaa !54
  %88 = getelementptr inbounds ptr, ptr %87, i64 1
  %89 = load ptr, ptr %88, align 8, !tbaa !36
  %90 = getelementptr inbounds double, ptr %89, i64 0
  store double %82, ptr %90, align 8, !tbaa !11
  %91 = load ptr, ptr %12, align 8, !tbaa !24
  %92 = getelementptr inbounds nuw %struct._generic_SUNMatrix, ptr %91, i32 0, i32 0
  %93 = load ptr, ptr %92, align 8, !tbaa !51
  %94 = getelementptr inbounds nuw %struct._SUNMatrixContent_Dense, ptr %93, i32 0, i32 4
  %95 = load ptr, ptr %94, align 8, !tbaa !54
  %96 = getelementptr inbounds ptr, ptr %95, i64 0
  %97 = load ptr, ptr %96, align 8, !tbaa !36
  %98 = getelementptr inbounds double, ptr %97, i64 1
  store double 0.000000e+00, ptr %98, align 8, !tbaa !11
  %99 = load ptr, ptr %12, align 8, !tbaa !24
  %100 = getelementptr inbounds nuw %struct._generic_SUNMatrix, ptr %99, i32 0, i32 0
  %101 = load ptr, ptr %100, align 8, !tbaa !51
  %102 = getelementptr inbounds nuw %struct._SUNMatrixContent_Dense, ptr %101, i32 0, i32 4
  %103 = load ptr, ptr %102, align 8, !tbaa !54
  %104 = getelementptr inbounds ptr, ptr %103, i64 1
  %105 = load ptr, ptr %104, align 8, !tbaa !36
  %106 = getelementptr inbounds double, ptr %105, i64 1
  store double 0.000000e+00, ptr %106, align 8, !tbaa !11
  call void @llvm.lifetime.end.p0(i64 8, ptr %21) #6
  call void @llvm.lifetime.end.p0(i64 8, ptr %20) #6
  call void @llvm.lifetime.end.p0(i64 8, ptr %19) #6
  call void @llvm.lifetime.end.p0(i64 8, ptr %18) #6
  call void @llvm.lifetime.end.p0(i64 8, ptr %17) #6
  ret i32 0
}